target datalayout = "e-m:e-p270:32:32-p271:32:32-p272:64:64-i64:64-i128:128-f80:128-n8:16:32:64-S128"
target triple = "x86_64-pc-linux-gnu"

%struct.ssl_common_options = type { ptr, ptr }
%struct.reassembly_table = type { ptr, ptr, ptr, ptr, ptr }
%struct.reassembly_table_functions = type { ptr, ptr, ptr, ptr, ptr, ptr }

@.str.853 = private unnamed_addr constant [5 x i8] c"dtls\00", align 1
@.str.854 = private unnamed_addr constant [10 x i8] c"dtls.port\00", align 1
@.str.857 = private unnamed_addr constant [34 x i8] c"Datagram Transport Layer Security\00", align 1
@.str.858 = private unnamed_addr constant [5 x i8] c"DTLS\00", align 1
@proto_dtls = internal global i32 0, align 4
@.str.859 = private unnamed_addr constant [10 x i8] c"DTLS Port\00", align 1
@dtls_associations = internal global ptr null, align 8
@.str.860 = private unnamed_addr constant [10 x i8] c"dtls.alpn\00", align 1
@.str.861 = private unnamed_addr constant [64 x i8] c"DTLS Application-Layer Protocol Negotiation (ALPN) Protocol IDs\00", align 1
@.str.877 = private unnamed_addr constant [17 x i8] c"DTLS RSA Keylist\00", align 1
@.str.878 = private unnamed_addr constant [21 x i8] c"dtlsdecrypttablefile\00", align 1
@dtlskeylist_uats = internal global ptr null, align 8
@ndtlsdecrypt = internal global i32 0, align 4
@.str.879 = private unnamed_addr constant [22 x i8] c"ChK12ProtocolsSection\00", align 1
@dtlsdecrypt_uat = internal global ptr null, align 8
@.str.880 = private unnamed_addr constant [4 x i8] c"cfg\00", align 1
@.str.881 = private unnamed_addr constant [14 x i8] c"RSA keys list\00", align 1
@.str.882 = private unnamed_addr constant [40 x i8] c"A table of RSA keys for DTLS decryption\00", align 1
@.str.883 = private unnamed_addr constant [10 x i8] c"keys_list\00", align 1
@.str.884 = private unnamed_addr constant [27 x i8] c"RSA keys list (deprecated)\00", align 1
@.str.885 = private unnamed_addr constant [114 x i8] c"Semicolon-separated list of private RSA keys used for DTLS decryption. Used by versions of Wireshark prior to 1.6\00", align 1
@dtls_keys_list = internal global ptr null, align 8
@.str.886 = private unnamed_addr constant [11 x i8] c"debug_file\00", align 1
@.str.887 = private unnamed_addr constant [16 x i8] c"DTLS debug file\00", align 1
@.str.888 = private unnamed_addr constant [102 x i8] c"redirect dtls debug to file name; leave empty to disable debug, use \22-\22 to redirect output to stderr\0A\00", align 1
@dtls_debug_file_name = internal global ptr null, align 8
@.str.889 = private unnamed_addr constant [18 x i8] c"client_cid_length\00", align 1
@.str.890 = private unnamed_addr constant [28 x i8] c"Client Connection ID length\00", align 1
@.str.891 = private unnamed_addr constant [86 x i8] c"Default client Connection ID length used when the Client Handshake message is missing\00", align 1
@dtls_default_client_cid_length = internal global i32 0, align 4
@.str.892 = private unnamed_addr constant [18 x i8] c"server_cid_length\00", align 1
@.str.893 = private unnamed_addr constant [28 x i8] c"Server Connection ID length\00", align 1
@.str.894 = private unnamed_addr constant [86 x i8] c"Default server Connection ID length used when the Server Handshake message is missing\00", align 1
@dtls_default_server_cid_length = internal global i32 0, align 4
@dtls_options = internal global %struct.ssl_common_options zeroinitializer, align 8
@dtls_handle = internal global ptr null, align 8
@dtls_reassembly_table = internal global %struct.reassembly_table zeroinitializer, align 8
@addresses_ports_reassembly_table_functions = external constant %struct.reassembly_table_functions, align 8
@dtls_tap = internal global i32 -1, align 4
@.str.895 = private unnamed_addr constant [43 x i8] c"proto_register_dtls: registered tap %s:%d\0A\00", align 1
@.str.896 = private unnamed_addr constant [22 x i8] c"DTLS payload fallback\00", align 1
@heur_subdissector_list = internal global ptr null, align 8

; Function Attrs: null_pointer_is_valid sspstrong uwtable
define hidden void @proto_register_dtls() #0 {
  %1 = alloca ptr, align 8
  %2 = alloca ptr, align 8
  call void @llvm.lifetime.start.p0(i64 8, ptr %1) #12
  %3 = call i32 @proto_register_protocol(ptr noundef @.str.857, ptr noundef @.str.858, ptr noundef @.str.853)
  store i32 %3, ptr @proto_dtls, align 4
  %4 = load i32, ptr @proto_dtls, align 4
  %5 = call ptr @register_dissector_table(ptr noundef @.str.854, ptr noundef @.str.859, i32 noundef %4, i32 noundef 5, i32 noundef 1)
  store ptr %5, ptr @dtls_associations, align 8
  %6 = load i32, ptr @proto_dtls, align 4
  call void @ssl_common_register_dtls_alpn_dissector_table(ptr noundef @.str.860, ptr noundef @.str.861, i32 noundef %6)
  %7 = load i32, ptr @proto_dtls, align 4
  call void @proto_register_field_array(i32 noundef %7, ptr noundef @proto_register_dtls.hf, i32 noundef 337)
  call void @proto_register_subtree_array(ptr noundef @proto_register_dtls.ett, i32 noundef 52)
  %8 = load i32, ptr @proto_dtls, align 4
  %9 = call ptr @expert_register_protocol(i32 noundef %8)
  store ptr %9, ptr %1, align 8
  %10 = load ptr, ptr %1, align 8
  call void @expert_register_field_array(ptr noundef %10, ptr noundef @proto_register_dtls.ei, i32 noundef 22)
  call void @llvm.lifetime.start.p0(i64 8, ptr %2) #12
  %11 = load i32, ptr @proto_dtls, align 4
  %12 = call ptr @prefs_register_protocol(i32 noundef %11, ptr noundef @proto_reg_handoff_dtls)
  store ptr %12, ptr %2, align 8
  %13 = call ptr @uat_new(ptr noundef @.str.877, i64 noundef 40, ptr noundef @.str.878, i1 noundef zeroext true, ptr noundef @dtlskeylist_uats, ptr noundef @ndtlsdecrypt, i32 noundef 1, ptr noundef @.str.879, ptr noundef @dtlsdecrypt_copy_cb, ptr noundef null, ptr noundef @dtlsdecrypt_free_cb, ptr noundef @dtls_parse_uat, ptr noundef @dtls_reset_uat, ptr noundef @proto_register_dtls.dtlskeylist_uats_flds)
  store ptr %13, ptr @dtlsdecrypt_uat, align 8
  %14 = load ptr, ptr %2, align 8
  %15 = load ptr, ptr @dtlsdecrypt_uat, align 8
  call void @prefs_register_uat_preference(ptr noundef %14, ptr noundef @.str.880, ptr noundef @.str.881, ptr noundef @.str.882, ptr noundef %15)
  %16 = load ptr, ptr %2, align 8
  call void @prefs_register_string_preference(ptr noundef %16, ptr noundef @.str.883, ptr noundef @.str.884, ptr noundef @.str.885, ptr noundef @dtls_keys_list)
  %17 = load ptr, ptr %2, align 8
  call void @prefs_register_filename_preference(ptr noundef %17, ptr noundef @.str.886, ptr noundef @.str.887, ptr noundef @.str.888, ptr noundef @dtls_debug_file_name, i1 noundef zeroext true)
  %18 = load ptr, ptr %2, align 8
  call void @prefs_register_uint_preference(ptr noundef %18, ptr noundef @.str.889, ptr noundef @.str.890, ptr noundef @.str.891, i32 noundef 10, ptr noundef @dtls_default_client_cid_length)
  %19 = load ptr, ptr %2, align 8
  call void @prefs_register_uint_preference(ptr noundef %19, ptr noundef @.str.892, ptr noundef @.str.893, ptr noundef @.str.894, i32 noundef 10, ptr noundef @dtls_default_server_cid_length)
  %20 = load ptr, ptr %2, align 8
  call void @ssl_common_register_options(ptr noundef %20, ptr noundef @dtls_options, i1 noundef zeroext true)
  call void @llvm.lifetime.end.p0(i64 8, ptr %2) #12
  %21 = load i32, ptr @proto_dtls, align 4
  %22 = call ptr @register_dissector(ptr noundef @.str.853, ptr noundef @dissect_dtls, i32 noundef %21)
  store ptr %22, ptr @dtls_handle, align 8
  call void @register_init_routine(ptr noundef @dtls_init)
  call void @register_cleanup_routine(ptr noundef @dtls_cleanup)
  call void @reassembly_table_register(ptr noundef @dtls_reassembly_table, ptr noundef @addresses_ports_reassembly_table_functions)
  call void @register_decode_as(ptr noundef @proto_register_dtls.dtls_da)
  %23 = call i32 @register_tap(ptr noundef @.str.853)
  store i32 %23, ptr @dtls_tap, align 4
  %24 = load i32, ptr @dtls_tap, align 4
  call void (ptr, ...) @ssl_debug_printf(ptr noundef @.str.895, ptr noundef @.str.853, i32 noundef %24)
  %25 = load i32, ptr @proto_dtls, align 4
  %26 = call ptr @register_heur_dissector_list_with_description(ptr noundef @.str.853, ptr noundef @.str.896, i32 noundef %25)
  store ptr %26, ptr @heur_subdissector_list, align 8
  call void @llvm.lifetime.end.p0(i64 8, ptr %1) #12
  ret void
}