; Function Attrs: null_pointer_is_valid sspstrong uwtable
define hidden void @proto_register_dtls() local_unnamed_addr #0 {
  %1 = tail call i32 @proto_register_protocol(ptr noundef nonnull @.str.857, ptr noundef nonnull @.str.858, ptr noundef nonnull @.str.853)
  store i32 %1, ptr @proto_dtls, align 4
  %2 = tail call ptr @register_dissector_table(ptr noundef nonnull @.str.854, ptr noundef nonnull @.str.859, i32 noundef %1, i32 noundef 5, i32 noundef 1)
  store ptr %2, ptr @dtls_associations, align 8
  %3 = load i32, ptr @proto_dtls, align 4
  tail call void @ssl_common_register_dtls_alpn_dissector_table(ptr noundef nonnull @.str.860, ptr noundef nonnull @.str.861, i32 noundef %3)
  %4 = load i32, ptr @proto_dtls, align 4
  tail call void @proto_register_field_array(i32 noundef %4, ptr noundef nonnull @proto_register_dtls.hf, i32 noundef 337)
  tail call void @proto_register_subtree_array(ptr noundef nonnull @proto_register_dtls.ett, i32 noundef 52)
  %5 = load i32, ptr @proto_dtls, align 4
  %6 = tail call ptr @expert_register_protocol(i32 noundef %5)
  tail call void @expert_register_field_array(ptr noundef %6, ptr noundef nonnull @proto_register_dtls.ei, i32 noundef 22)
  %7 = load i32, ptr @proto_dtls, align 4
  %8 = tail call ptr @prefs_register_protocol(i32 noundef %7, ptr noundef nonnull @proto_reg_handoff_dtls)
  %9 = tail call ptr @uat_new(ptr noundef nonnull @.str.877, i64 noundef 40, ptr noundef nonnull @.str.878, i1 noundef zeroext true, ptr noundef nonnull @dtlskeylist_uats, ptr noundef nonnull @ndtlsdecrypt, i32 noundef 1, ptr noundef nonnull @.str.879, ptr noundef nonnull @dtlsdecrypt_copy_cb, ptr noundef null, ptr noundef nonnull @dtlsdecrypt_free_cb, ptr noundef nonnull @dtls_parse_uat, ptr noundef nonnull @dtls_reset_uat, ptr noundef nonnull @proto_register_dtls.dtlskeylist_uats_flds)
  store ptr %9, ptr @dtlsdecrypt_uat, align 8
  tail call void @prefs_register_uat_preference(ptr noundef %8, ptr noundef nonnull @.str.880, ptr noundef nonnull @.str.881, ptr noundef nonnull @.str.882, ptr noundef %9)
  tail call void @prefs_register_string_preference(ptr noundef %8, ptr noundef nonnull @.str.883, ptr noundef nonnull @.str.884, ptr noundef nonnull @.str.885, ptr noundef nonnull @dtls_keys_list)
  tail call void @prefs_register_filename_preference(ptr noundef %8, ptr noundef nonnull @.str.886, ptr noundef nonnull @.str.887, ptr noundef nonnull @.str.888, ptr noundef nonnull @dtls_debug_file_name, i1 noundef zeroext true)
  tail call void @prefs_register_uint_preference(ptr noundef %8, ptr noundef nonnull @.str.889, ptr noundef nonnull @.str.890, ptr noundef nonnull @.str.891, i32 noundef 10, ptr noundef nonnull @dtls_default_client_cid_length)
  tail call void @prefs_register_uint_preference(ptr noundef %8, ptr noundef nonnull @.str.892, ptr noundef nonnull @.str.893, ptr noundef nonnull @.str.894, i32 noundef 10, ptr noundef nonnull @dtls_default_server_cid_length)
  tail call void @ssl_common_register_options(ptr noundef %8, ptr noundef nonnull @dtls_options, i1 noundef zeroext true)
  %10 = load i32, ptr @proto_dtls, align 4
  %11 = tail call ptr @register_dissector(ptr noundef nonnull @.str.853, ptr noundef nonnull @dissect_dtls, i32 noundef %10)
  store ptr %11, ptr @dtls_handle, align 8
  tail call void @register_init_routine(ptr noundef nonnull @dtls_init)
  tail call void @register_cleanup_routine(ptr noundef nonnull @dtls_cleanup)
  tail call void @reassembly_table_register(ptr noundef nonnull @dtls_reassembly_table, ptr noundef nonnull @addresses_ports_reassembly_table_functions)
  tail call void @register_decode_as(ptr noundef nonnull @proto_register_dtls.dtls_da)
  %12 = tail call i32 @register_tap(ptr noundef nonnull @.str.853)
  store i32 %12, ptr @dtls_tap, align 4
  tail call void (ptr, ...) @ssl_debug_printf(ptr noundef nonnull @.str.895, ptr noundef nonnull @.str.853, i32 noundef %12)
  %13 = load i32, ptr @proto_dtls, align 4
  %14 = tail call ptr @register_heur_dissector_list_with_description(ptr noundef nonnull @.str.853, ptr noundef nonnull @.str.896, i32 noundef %13)
  store ptr %14, ptr @heur_subdissector_list, align 8
  ret void
}